target datalayout = "e-m:e-p270:32:32-p271:32:32-p272:64:64-i64:64-i128:128-f80:128-n8:16:32:64-S128"
target triple = "x86_64-pc-linux-gnu"

@.str = private unnamed_addr constant [14 x i8] c"out of memory\00", align 1
@.str.1 = private unnamed_addr constant [31 x i8] c"could not generate random salt\00", align 1

; Function Attrs: nounwind uwtable
define ptr @pg_fe_scram_build_secret(ptr noundef %0, i32 noundef %1, ptr noundef %2) #0 {
  %4 = alloca ptr, align 8
  %5 = alloca ptr, align 8
  %6 = alloca i32, align 4
  %7 = alloca ptr, align 8
  %8 = alloca ptr, align 8
  %9 = alloca i32, align 4
  %10 = alloca [16 x i8], align 16
  %11 = alloca ptr, align 8
  %12 = alloca i32, align 4
  store ptr %0, ptr %5, align 8
  store i32 %1, ptr %6, align 4
  store ptr %2, ptr %7, align 8
  call void @llvm.lifetime.start.p0(i64 8, ptr %8) #8
  call void @llvm.lifetime.start.p0(i64 4, ptr %9) #8
  call void @llvm.lifetime.start.p0(i64 16, ptr %10) #8
  call void @llvm.lifetime.start.p0(i64 8, ptr %11) #8
  %13 = load ptr, ptr %5, align 8
  %14 = call i32 @pg_saslprep(ptr noundef %13, ptr noundef %8)
  store i32 %14, ptr %9, align 4
  %15 = load i32, ptr %9, align 4
  %16 = icmp eq i32 %15, -1
  br i1 %16, label %17, label %19

17:                                               ; preds = %3
  %18 = load ptr, ptr %7, align 8
  store ptr @.str, ptr %18, align 8
  store ptr null, ptr %4, align 8
  store i32 1, ptr %12, align 4
  br label %38

19:                                               ; preds = %3
  %20 = load i32, ptr %9, align 4
  %21 = icmp eq i32 %20, 0
  br i1 %21, label %22, label %24

22:                                               ; preds = %19
  %23 = load ptr, ptr %8, align 8
  store ptr %23, ptr %5, align 8
  br label %24

24:                                               ; preds = %22, %19
  %25 = getelementptr inbounds [16 x i8], ptr %10, i64 0, i64 0
  %26 = call zeroext i1 @pg_strong_random(ptr noundef %25, i64 noundef 16)
  br i1 %26, label %30, label %27

27:                                               ; preds = %24
  %28 = load ptr, ptr %7, align 8
  store ptr @.str.1, ptr %28, align 8
  %29 = load ptr, ptr %8, align 8
  call void @free(ptr noundef %29) #8
  store ptr null, ptr %4, align 8
  store i32 1, ptr %12, align 4
  br label %38

30:                                               ; preds = %24
  %31 = getelementptr inbounds [16 x i8], ptr %10, i64 0, i64 0
  %32 = load i32, ptr %6, align 4
  %33 = load ptr, ptr %5, align 8
  %34 = load ptr, ptr %7, align 8
  %35 = call ptr @scram_build_secret(i32 noundef 3, i32 noundef 32, ptr noundef %31, i32 noundef 16, i32 noundef %32, ptr noundef %33, ptr noundef %34)
  store ptr %35, ptr %11, align 8
  %36 = load ptr, ptr %8, align 8
  call void @free(ptr noundef %36) #8
  %37 = load ptr, ptr %11, align 8
  store ptr %37, ptr %4, align 8
  store i32 1, ptr %12, align 4
  br label %38

38:                                               ; preds = %30, %27, %17
  call void @llvm.lifetime.end.p0(i64 8, ptr %11) #8
  call void @llvm.lifetime.end.p0(i64 16, ptr %10) #8
  call void @llvm.lifetime.end.p0(i64 4, ptr %9) #8
  call void @llvm.lifetime.end.p0(i64 8, ptr %8) #8
  %39 = load ptr, ptr %4, align 8
  ret ptr %39
}