; Function Attrs: nounwind uwtable
define ptr @pg_fe_scram_build_secret(ptr noundef %0, i32 noundef %1, ptr noundef %2) local_unnamed_addr #0 {
  %4 = alloca ptr, align 8
  %5 = alloca [16 x i8], align 16
  call void @llvm.lifetime.start.p0(i64 8, ptr nonnull %4) #13
  call void @llvm.lifetime.start.p0(i64 16, ptr nonnull %5) #13
  %6 = call i32 @pg_saslprep(ptr noundef %0, ptr noundef nonnull %4) #13
  switch i32 %6, label %10 [
    i32 -1, label %7
    i32 0, label %8
  ]

7:                                                ; preds = %3
  store ptr @.str, ptr %2, align 8
  br label %17

8:                                                ; preds = %3
  %9 = load ptr, ptr %4, align 8
  br label %10

10:                                               ; preds = %3, %8
  %.09 = phi ptr [ %9, %8 ], [ %0, %3 ]
  %11 = call zeroext i1 @pg_strong_random(ptr noundef nonnull %5, i64 noundef 16) #13
  br i1 %11, label %14, label %12

12:                                               ; preds = %10
  store ptr @.str.1, ptr %2, align 8
  %13 = load ptr, ptr %4, align 8
  call void @free(ptr noundef %13) #13
  br label %17

14:                                               ; preds = %10
  %15 = call ptr @scram_build_secret(i32 noundef 3, i32 noundef 32, ptr noundef nonnull %5, i32 noundef 16, i32 noundef %1, ptr noundef %.09, ptr noundef %2) #13
  %16 = load ptr, ptr %4, align 8
  call void @free(ptr noundef %16) #13
  br label %17

17:                                               ; preds = %14, %12, %7
  %.0 = phi ptr [ null, %7 ], [ %15, %14 ], [ null, %12 ]
  call void @llvm.lifetime.end.p0(i64 16, ptr nonnull %5) #13
  call void @llvm.lifetime.end.p0(i64 8, ptr nonnull %4) #13
  ret ptr %.0
}